target datalayout = "e-m:e-p270:32:32-p271:32:32-p272:64:64-i64:64-i128:128-f80:128-n8:16:32:64-S128"
target triple = "x86_64-pc-linux-gnu"

@.str.9 = private unnamed_addr constant [32 x i8] c"%s: pthread_rwlock_wrlock(): %m\00", align 1
@__func__.getnameinfo_cache_purge = private unnamed_addr constant [24 x i8] c"getnameinfo_cache_purge\00", align 1
@nameinfo_cache = internal global ptr null, align 8
@.str.10 = private unnamed_addr constant [32 x i8] c"%s: pthread_rwlock_unlock(): %m\00", align 1
@getnameinfo_cache_lock = internal global { { i32, i32, i32, i32, i32, i32, i32, i32, i8, [7 x i8], i64, i32, [4 x i8] } } zeroinitializer, align 8

; Function Attrs: nounwind uwtable
define dso_local void @getnameinfo_cache_purge() #0 {
  %1 = alloca i32, align 4
  %2 = alloca i32, align 4
  br label %3

3:                                                ; preds = %0
  call void @llvm.lifetime.start.p0(i64 4, ptr %1) #9
  %4 = call i32 @pthread_rwlock_wrlock(ptr noundef @getnameinfo_cache_lock) #9
  store i32 %4, ptr %1, align 4
  %5 = load i32, ptr %1, align 4
  %6 = icmp ne i32 %5, 0
  br i1 %6, label %7, label %10

7:                                                ; preds = %3
  %8 = load i32, ptr %1, align 4
  %9 = call ptr @__errno_location() #10
  store i32 %8, ptr %9, align 4
  call void (ptr, ...) @fatal_abort(ptr noundef @.str.9, ptr noundef @__func__.getnameinfo_cache_purge) #11
  unreachable

10:                                               ; preds = %3
  call void @llvm.lifetime.end.p0(i64 4, ptr %1) #9
  br label %11

11:                                               ; preds = %10
  br label %12

12:                                               ; preds = %11
  %13 = load ptr, ptr @nameinfo_cache, align 8
  %14 = icmp ne ptr %13, null
  br i1 %14, label %15, label %17

15:                                               ; preds = %12
  %16 = load ptr, ptr @nameinfo_cache, align 8
  call void @list_destroy(ptr noundef %16)
  br label %17

17:                                               ; preds = %15, %12
  store ptr null, ptr @nameinfo_cache, align 8
  br label %18

18:                                               ; preds = %17
  br label %19

19:                                               ; preds = %18
  call void @llvm.lifetime.start.p0(i64 4, ptr %2) #9
  %20 = call i32 @pthread_rwlock_unlock(ptr noundef @getnameinfo_cache_lock) #9
  store i32 %20, ptr %2, align 4
  %21 = load i32, ptr %2, align 4
  %22 = icmp ne i32 %21, 0
  br i1 %22, label %23, label %26

23:                                               ; preds = %19
  %24 = load i32, ptr %2, align 4
  %25 = call ptr @__errno_location() #10
  store i32 %24, ptr %25, align 4
  call void (ptr, ...) @fatal_abort(ptr noundef @.str.10, ptr noundef @__func__.getnameinfo_cache_purge) #11
  unreachable

26:                                               ; preds = %19
  call void @llvm.lifetime.end.p0(i64 4, ptr %2) #9
  br label %27

27:                                               ; preds = %26
  ret void
}