; Function Attrs: nounwind uwtable
define dso_local void @getnameinfo_cache_purge() local_unnamed_addr #0 {
  %1 = tail call i32 @pthread_rwlock_wrlock(ptr noundef nonnull @getnameinfo_cache_lock) #14
  %.not = icmp eq i32 %1, 0
  br i1 %.not, label %4, label %2

2:                                                ; preds = %0
  %3 = tail call ptr @__errno_location() #15
  store i32 %1, ptr %3, align 4
  tail call void (ptr, ...) @fatal_abort(ptr noundef nonnull @.str.9, ptr noundef nonnull @__func__.getnameinfo_cache_purge) #16
  unreachable

4:                                                ; preds = %0
  %5 = load ptr, ptr @nameinfo_cache, align 8
  %.not6 = icmp eq ptr %5, null
  br i1 %.not6, label %7, label %6

6:                                                ; preds = %4
  tail call void @list_destroy(ptr noundef nonnull %5) #14
  br label %7

7:                                                ; preds = %6, %4
  store ptr null, ptr @nameinfo_cache, align 8
  %8 = tail call i32 @pthread_rwlock_unlock(ptr noundef nonnull @getnameinfo_cache_lock) #14
  %.not7 = icmp eq i32 %8, 0
  br i1 %.not7, label %11, label %9

9:                                                ; preds = %7
  %10 = tail call ptr @__errno_location() #15
  store i32 %8, ptr %10, align 4
  tail call void (ptr, ...) @fatal_abort(ptr noundef nonnull @.str.10, ptr noundef nonnull @__func__.getnameinfo_cache_purge) #16
  unreachable

11:                                               ; preds = %7
  ret void
}